Certificate:
    Data:
        Version: 3 (0x2)
        Serial Number: 2 (0x2)
    Signature Algorithm: sha256WithRSAEncryption
        Issuer: CN=Easy-RSA CA
        Validity
            Not Before: Apr 14 21:35:33 2020 GMT
            Not After : Apr 12 21:35:33 2030 GMT
        Subject: CN=n1
        Subject Public Key Info:
            Public Key Algorithm: rsaEncryption
                Public-Key: (2048 bit)
                Modulus:
                    00:ad:f2:e5:7a:b3:fa:47:c2:84:7d:44:c3:5c:f4:
                    07:c2:39:97:8b:31:39:47:3b:89:2b:b5:e8:6b:d4:
                    89:d4:48:8f:60:08:71:d6:8b:65:2c:79:e2:7b:8f:
                    0d:a5:d9:d6:1e:f7:c0:8b:26:fa:79:3a:04:7f:67:
                    8e:f0:92:d2:3c:f1:62:27:f4:5b:fa:cb:23:b5:4c:
                    2c:cd:8e:b9:14:c8:96:39:30:5f:07:46:99:15:21:
                    0c:30:35:8e:74:5c:ca:f2:e7:98:bb:fd:c6:2e:74:
                    4e:b4:50:47:1f:01:d2:da:a8:87:89:c5:a6:86:76:
                    52:38:2c:48:8d:ff:a3:a6:ed:da:ec:f3:15:ab:cc:
                    9b:e8:c9:52:f4:9b:ec:8c:de:8e:4f:36:d0:8b:23:
                    26:ff:a5:99:60:1f:c6:42:c8:a6:33:8e:3a:43:83:
                    4e:f9:f5:ec:8e:ae:8a:3e:ee:27:a2:75:ae:8f:d9:
                    e3:0f:b9:d1:c8:7f:96:70:df:53:09:36:e2:ae:ec:
                    60:05:d2:6c:2d:fc:cf:20:ad:65:01:9d:2a:be:3c:
                    ca:74:b9:2f:ea:a8:48:35:4f:03:6b:26:8f:c0:f3:
                    9d:7d:68:9c:d1:7d:8d:28:12:f9:c5:e0:78:41:7e:
                    9d:19:69:f0:a7:86:aa:36:88:da:7c:80:b6:c0:01:
                    4d:29
                Exponent: 65537 (0x10001)
        X509v3 extensions:
            X509v3 Basic Constraints: 
                CA:FALSE
            X509v3 Subject Key Identifier: 
                DD:DD:B3:22:B7:10:F1:F3:50:A1:4C:87:8C:81:0C:95:42:20:20:55
            X509v3 Authority Key Identifier: 
                keyid:38:60:07:EC:58:35:E8:13:3C:08:21:67:6B:27:12:1A:87:64:C2:EB
                DirName:/CN=Easy-RSA CA
                serial:A2:60:31:A2:6C:CE:07:74

            X509v3 Extended Key Usage: 
                TLS Web Client Authentication
            X509v3 Key Usage: 
                Digital Signature
    Signature Algorithm: sha256WithRSAEncryption
         90:35:e4:ec:aa:9d:3c:25:d9:b3:00:ab:f0:44:57:09:ab:28:
         e4:73:57:18:d5:bc:51:84:70:46:3d:5d:d7:71:16:25:4c:d5:
         5a:8c:5d:75:73:bf:a1:7e:89:05:d3:31:0e:64:2e:c8:e5:65:
         ed:30:b8:14:55:20:b4:0f:20:d6:0f:46:61:50:1b:bb:f9:43:
         dc:51:c5:24:6d:57:16:2d:e3:26:68:e5:bc:08:3c:49:7b:9c:
         82:49:e4:90:fd:90:84:d1:44:bb:18:4c:e0:d1:ed:f9:bf:a1:
         04:58:76:13:fa:c8:a9:24:35:78:3b:7a:b9:c5:d5:fb:d7:6f:
         be:14:fe:6b:ce:6b:98:7b:d4:72:8c:68:4a:2b:e9:bc:56:51:
         75:bc:c6:2f:e5:8f:5d:d0:29:c4:47:35:ad:4a:4e:f2:6b:bc:
         ac:c2:42:3d:d2:bd:9f:42:bd:d9:fb:5b:a9:15:5f:07:91:fb:
         95:4c:6d:b9:fe:6c:f2:ad:5c:2c:39:cb:b9:86:60:1e:d2:43:
         de:c3:69:3d:9b:be:e0:98:73:fc:ac:24:66:b3:80:ba:f6:84:
         fd:1c:fb:e9:7c:19:79:c2:60:54:b9:a2:6a:14:b1:d3:f8:a7:
         e8:11:77:9e:91:dd:d5:60:fd:cd:85:8f:18:25:e1:c0:ee:25:
         18:89:64:1d
-----BEGIN CERTIFICATE-----
MIIDNjCCAh6gAwIBAgIBAjANBgkqhkiG9w0BAQsFADAWMRQwEgYDVQQDDAtFYXN5
LVJTQSBDQTAeFw0yMDA0MTQyMTM1MzNaFw0zMDA0MTIyMTM1MzNaMA0xCzAJBgNV
BAMMAm4xMIIBIjANBgkqhkiG9w0BAQEFAAOCAQ8AMIIBCgKCAQEArfLlerP6R8KE
fUTDXPQHwjmXizE5RzuJK7Xoa9SJ1EiPYAhx1otlLHnie48NpdnWHvfAiyb6eToE
f2eO8JLSPPFiJ/Rb+ssjtUwszY65FMiWOTBfB0aZFSEMMDWOdFzK8ueYu/3GLnRO
tFBHHwHS2qiHicWmhnZSOCxIjf+jpu3a7PMVq8yb6MlS9JvsjN6OTzbQiyMm/6WZ
YB/GQsimM446Q4NO+fXsjq6KPu4nonWuj9njD7nRyH+WcN9TCTbiruxgBdJsLfzP
IK1lAZ0qvjzKdLkv6qhINU8DayaPwPOdfWic0X2NKBL5xeB4QX6dGWnwp4aqNoja
fIC2wAFNKQIDAQABo4GXMIGUMAkGA1UdEwQCMAAwHQYDVR0OBBYEFN3dsyK3EPHz
UKFMh4yBDJVCICBVMEYGA1UdIwQ/MD2AFDhgB+xYNegTPAghZ2snEhqHZMLroRqk
GDAWMRQwEgYDVQQDDAtFYXN5LVJTQSBDQYIJAKJgMaJszgd0MBMGA1UdJQQMMAoG
CCsGAQUFBwMCMAsGA1UdDwQEAwIHgDANBgkqhkiG9w0BAQsFAAOCAQEAkDXk7Kqd
PCXZswCr8ERXCaso5HNXGNW8UYRwRj1d13EWJUzVWoxddXO/oX6JBdMxDmQuyOVl
7TC4FFUgtA8g1g9GYVAbu/lD3FHFJG1XFi3jJmjlvAg8SXucgknkkP2QhNFEuxhM
4NHt+b+hBFh2E/rIqSQ1eDt6ucXV+9dvvhT+a85rmHvUcoxoSivpvFZRdbzGL+WP
XdApxEc1rUpO8mu8rMJCPdK9n0K92ftbqRVfB5H7lUxtuf5s8q1cLDnLuYZgHtJD
3sNpPZu+4Jhz/KwkZrOAuvaE/Rz76XwZecJgVLmiahSx0/in6BF3npHd1WD9zYWP
GCXhwO4lGIlkHQ==
-----END CERTIFICATE-----
